; ModuleID = '60/658.c'
source_filename = "60/658.c"
target datalayout = "e-m:e-p270:32:32-p271:32:32-p272:64:64-i64:64-f80:128-n8:16:32:64-S128"
target triple = "x86_64-pc-linux-gnu"

@.str = private unnamed_addr constant [3 x i8] c"%d\00", align 1
@.str.1 = private unnamed_addr constant [6 x i8] c"empty\00", align 1
@.str.2 = private unnamed_addr constant [7 x i8] c"%d %d\0A\00", align 1

; Function Attrs: noinline nounwind uwtable
define dso_local i32 @main() #0 {
  %1 = alloca i32, align 4
  %2 = alloca i32, align 4
  %3 = alloca i32, align 4
  %4 = alloca i32, align 4
  %5 = alloca i32, align 4
  %6 = alloca i32, align 4
  store i32 0, i32* %1, align 4
  store i32 0, i32* %5, align 4
  %7 = call i32 (i8*, ...) @__isoc99_scanf(i8* getelementptr inbounds ([3 x i8], [3 x i8]* @.str, i64 0, i64 0), i32* %6)
  %8 = load i32, i32* %6, align 4
  %9 = icmp slt i32 %8, 5
  br i1 %9, label %10, label %12

10:                                               ; preds = %0
  %11 = call i32 (i8*, ...) @printf(i8* getelementptr inbounds ([6 x i8], [6 x i8]* @.str.1, i64 0, i64 0))
  br label %84

12:                                               ; preds = %0
  store i32 3, i32* %2, align 4
  br label %13

13:                                               ; preds = %80, %12
  %14 = load i32, i32* %2, align 4
  %15 = load i32, i32* %6, align 4
  %16 = icmp sle i32 %14, %15
  br i1 %16, label %17, label %83

17:                                               ; preds = %13
  %18 = load i32, i32* %2, align 4
  %19 = sitofp i32 %18 to double
  %20 = call double @sqrt(double %19) #3
  %21 = fptosi double %20 to i32
  store i32 %21, i32* %3, align 4
  store i32 2, i32* %4, align 4
  br label %22

22:                                               ; preds = %33, %17
  %23 = load i32, i32* %4, align 4
  %24 = load i32, i32* %3, align 4
  %25 = icmp sle i32 %23, %24
  br i1 %25, label %26, label %36

26:                                               ; preds = %22
  %27 = load i32, i32* %2, align 4
  %28 = load i32, i32* %4, align 4
  %29 = srem i32 %27, %28
  %30 = icmp eq i32 %29, 0
  br i1 %30, label %31, label %32

31:                                               ; preds = %26
  br label %36

32:                                               ; preds = %26
  br label %33

33:                                               ; preds = %32
  %34 = load i32, i32* %4, align 4
  %35 = add nsw i32 %34, 1
  store i32 %35, i32* %4, align 4
  br label %22

36:                                               ; preds = %31, %22
  %37 = load i32, i32* %4, align 4
  %38 = load i32, i32* %3, align 4
  %39 = add nsw i32 %38, 1
  %40 = icmp sge i32 %37, %39
  br i1 %40, label %41, label %79

41:                                               ; preds = %36
  %42 = load i32, i32* %2, align 4
  %43 = add nsw i32 %42, 2
  %44 = sitofp i32 %43 to double
  %45 = call double @sqrt(double %44) #3
  %46 = fptosi double %45 to i32
  store i32 %46, i32* %3, align 4
  store i32 2, i32* %4, align 4
  br label %47

47:                                               ; preds = %59, %41
  %48 = load i32, i32* %4, align 4
  %49 = load i32, i32* %3, align 4
  %50 = icmp sle i32 %48, %49
  br i1 %50, label %51, label %62

51:                                               ; preds = %47
  %52 = load i32, i32* %2, align 4
  %53 = add nsw i32 %52, 2
  %54 = load i32, i32* %4, align 4
  %55 = srem i32 %53, %54
  %56 = icmp eq i32 %55, 0
  br i1 %56, label %57, label %58

57:                                               ; preds = %51
  br label %62

58:                                               ; preds = %51
  br label %59

59:                                               ; preds = %58
  %60 = load i32, i32* %4, align 4
  %61 = add nsw i32 %60, 1
  store i32 %61, i32* %4, align 4
  br label %47

62:                                               ; preds = %57, %47
  %63 = load i32, i32* %4, align 4
  %64 = load i32, i32* %3, align 4
  %65 = add nsw i32 %64, 1
  %66 = icmp sge i32 %63, %65
  br i1 %66, label %67, label %78

67:                                               ; preds = %62
  %68 = load i32, i32* %2, align 4
  %69 = add nsw i32 %68, 2
  %70 = load i32, i32* %6, align 4
  %71 = icmp sle i32 %69, %70
  br i1 %71, label %72, label %77

72:                                               ; preds = %67
  %73 = load i32, i32* %2, align 4
  %74 = load i32, i32* %2, align 4
  %75 = add nsw i32 %74, 2
  %76 = call i32 (i8*, ...) @printf(i8* getelementptr inbounds ([7 x i8], [7 x i8]* @.str.2, i64 0, i64 0), i32 %73, i32 %75)
  br label %77

77:                                               ; preds = %72, %67
  br label %78

78:                                               ; preds = %77, %62
  br label %79

79:                                               ; preds = %78, %36
  br label %80

80:                                               ; preds = %79
  %81 = load i32, i32* %2, align 4
  %82 = add nsw i32 %81, 2
  store i32 %82, i32* %2, align 4
  br label %13

83:                                               ; preds = %13
  br label %84

84:                                               ; preds = %83, %10
  %85 = call i32 @getchar()
  %86 = call i32 @getchar()
  %87 = call i32 @getchar()
  %88 = load i32, i32* %1, align 4
  ret i32 %88
}

declare dso_local i32 @__isoc99_scanf(i8*, ...) #1

declare dso_local i32 @printf(i8*, ...) #1

; Function Attrs: nounwind
declare dso_local double @sqrt(double) #2

declare dso_local i32 @getchar() #1


!llvm.module.flags = !{!0}
!llvm.ident = !{!1}

!0 = !{i32 1, !"wchar_size", i32 4}
!1 = !{!"clang version 10.0.0-4ubuntu1 "}
